target datalayout = "e-m:e-p270:32:32-p271:32:32-p272:64:64-i64:64-i128:128-f80:128-n8:16:32:64-S128"
target triple = "x86_64-pc-linux-gnu"

%struct.AVChannelLayout = type { i32, i32, %union.anon.0, ptr }
%union.anon.0 = type { i64 }
%struct.AC3EncodeContext = type { ptr, %struct.AC3EncOptions, ptr, %struct.AudioDSPContext, ptr, %struct.MECmpContext, %struct.AC3DSPContext, ptr, ptr, [6 x %struct.AC3Block], i32, i32, i32, i32, i32, i32, i32, i32, i32, i32, i32, [2 x i16], i64, i64, i32, i32, i32, i32, i32, i32, i32, ptr, i32, i32, i32, i32, i32, i32, i32, i32, [7 x i32], i32, i32, i32, i32, i32, [18 x i8], i32, i32, i32, i32, i32, i32, %struct.AC3BitAllocParameters, i32, [7 x i32], [7 x i32], i32, i32, i32, [6 x ptr], ptr, ptr, ptr, ptr, ptr, ptr, ptr, ptr, ptr, ptr, ptr, [7 x [6 x i8]], [7 x i8], i32, [7 x [6 x i8]], [7 x [6 x ptr]], i32, ptr, ptr, %union.anon.1, %union.anon.2 }
%struct.AC3EncOptions = type { i32, i32, float, float, i32, i32, i32, i32, i32, i32, i32, i32, float, float, float, float, i32, i32, i32, i32, i32, i32, i32, i32, i32, i32 }
%struct.AudioDSPContext = type { ptr, ptr, ptr }
%struct.MECmpContext = type { ptr, [6 x ptr], [6 x ptr], [6 x ptr], [6 x ptr], [6 x ptr], [6 x ptr], [6 x ptr], [6 x ptr], [6 x ptr], [6 x ptr], [6 x ptr], [6 x ptr], [6 x ptr], [6 x ptr], [2 x [4 x ptr]], [6 x ptr] }
%struct.AC3DSPContext = type { ptr, ptr, ptr, ptr, ptr, ptr, ptr, ptr, i32, i32, ptr, ptr }
%struct.AC3Block = type { [7 x ptr], [7 x ptr], [7 x ptr], [7 x ptr], [7 x ptr], [7 x ptr], [7 x ptr], [7 x ptr], [7 x ptr], [7 x ptr], i8, i32, [4 x i8], i32, i32, [7 x i8], i32, [7 x i8], [7 x i8], i32, i32, [7 x i32] }
%struct.AC3BitAllocParameters = type { i32, i32, i32, i32, i32, i32, i32, i32, i32 }
%union.anon.1 = type { [256 x float] }
%union.anon.2 = type { [512 x float] }
%struct.AVCodecContext = type { ptr, i32, i32, ptr, i32, i32, ptr, ptr, ptr, i64, i32, i32, ptr, i32, %struct.AVRational, %struct.AVRational, %struct.AVRational, i32, i32, i32, i32, i32, %struct.AVRational, i32, i32, i32, i32, i32, i32, i32, i32, i32, i32, i32, ptr, ptr, i32, float, float, float, float, float, float, float, float, float, i32, i32, i32, i32, i32, i32, i32, i32, i32, i32, i32, i32, ptr, ptr, ptr, i32, i32, i32, i32, i32, i32, i32, i32, i32, i32, %struct.AVChannelLayout, i32, i32, i32, i32, i32, i32, i32, i32, ptr, i32, i32, i32, float, float, i32, i32, i32, i32, i32, ptr, i64, i64, float, float, i32, i32, ptr, ptr, i32, i32, i32, i32, i32, ptr, ptr, ptr, ptr, i32, i32, [8 x i64], i32, i32, i32, i32, i32, i32, i32, ptr, ptr, i32, i32, i32, i32, i32, i32, i32, i32, i32, i32, ptr, ptr, i32, i32, ptr, ptr, ptr, ptr, i32, i32, i64, i32, i32, i64, ptr, i64, ptr, i32, ptr, i32 }
%struct.AVRational = type { i32, i32 }

; Function Attrs: cold nounwind optsize uwtable
define internal void @set_channel_info(ptr noundef %0) #4 {
  %2 = alloca ptr, align 8
  %3 = alloca ptr, align 8
  %4 = alloca i64, align 8
  %5 = alloca i32, align 4
  store ptr %0, ptr %2, align 8, !tbaa !48
  call void @llvm.lifetime.start.p0(i64 8, ptr %3) #12
  %6 = load ptr, ptr %2, align 8, !tbaa !48
  %7 = getelementptr inbounds nuw %struct.AVCodecContext, ptr %6, i32 0, i32 6
  %8 = load ptr, ptr %7, align 8, !tbaa !54
  store ptr %8, ptr %3, align 8, !tbaa !4
  call void @llvm.lifetime.start.p0(i64 8, ptr %4) #12
  %9 = load ptr, ptr %2, align 8, !tbaa !48
  %10 = getelementptr inbounds nuw %struct.AVCodecContext, ptr %9, i32 0, i32 71
  %11 = call i64 @av_channel_layout_subset(ptr noundef %10, i64 noundef -1)
  store i64 %11, ptr %4, align 8, !tbaa !132
  call void @llvm.lifetime.start.p0(i64 4, ptr %5) #12
  %12 = load ptr, ptr %2, align 8, !tbaa !48
  %13 = getelementptr inbounds nuw %struct.AVCodecContext, ptr %12, i32 0, i32 71
  %14 = getelementptr inbounds nuw %struct.AVChannelLayout, ptr %13, i32 0, i32 1
  %15 = load i32, ptr %14, align 4, !tbaa !107
  store i32 %15, ptr %5, align 4, !tbaa !9
  %16 = load i64, ptr %4, align 8, !tbaa !132
  %17 = and i64 %16, 8
  %18 = icmp ne i64 %17, 0
  %19 = xor i1 %18, true
  %20 = xor i1 %19, true
  %21 = zext i1 %20 to i32
  %22 = load ptr, ptr %3, align 8, !tbaa !4
  %23 = getelementptr inbounds nuw %struct.AC3EncodeContext, ptr %22, i32 0, i32 26
  store i32 %21, ptr %23, align 16, !tbaa !160
  %24 = load i32, ptr %5, align 4, !tbaa !9
  %25 = load ptr, ptr %3, align 8, !tbaa !4
  %26 = getelementptr inbounds nuw %struct.AC3EncodeContext, ptr %25, i32 0, i32 25
  store i32 %24, ptr %26, align 4, !tbaa !123
  %27 = load i32, ptr %5, align 4, !tbaa !9
  %28 = load ptr, ptr %3, align 8, !tbaa !4
  %29 = getelementptr inbounds nuw %struct.AC3EncodeContext, ptr %28, i32 0, i32 26
  %30 = load i32, ptr %29, align 16, !tbaa !160
  %31 = sub nsw i32 %27, %30
  %32 = load ptr, ptr %3, align 8, !tbaa !4
  %33 = getelementptr inbounds nuw %struct.AC3EncodeContext, ptr %32, i32 0, i32 24
  store i32 %31, ptr %33, align 8, !tbaa !29
  %34 = load ptr, ptr %3, align 8, !tbaa !4
  %35 = getelementptr inbounds nuw %struct.AC3EncodeContext, ptr %34, i32 0, i32 26
  %36 = load i32, ptr %35, align 16, !tbaa !160
  %37 = icmp ne i32 %36, 0
  br i1 %37, label %38, label %43

38:                                               ; preds = %1
  %39 = load ptr, ptr %3, align 8, !tbaa !4
  %40 = getelementptr inbounds nuw %struct.AC3EncodeContext, ptr %39, i32 0, i32 24
  %41 = load i32, ptr %40, align 8, !tbaa !29
  %42 = add nsw i32 %41, 1
  br label %44

43:                                               ; preds = %1
  br label %44

44:                                               ; preds = %43, %38
  %45 = phi i32 [ %42, %38 ], [ -1, %43 ]
  %46 = load ptr, ptr %3, align 8, !tbaa !4
  %47 = getelementptr inbounds nuw %struct.AC3EncodeContext, ptr %46, i32 0, i32 27
  store i32 %45, ptr %47, align 4, !tbaa !168
  %48 = load i64, ptr %4, align 8, !tbaa !132
  %49 = and i64 %48, -9
  switch i64 %49, label %71 [
    i64 4, label %50
    i64 3, label %53
    i64 7, label %56
    i64 259, label %59
    i64 263, label %62
    i64 51, label %65
    i64 1539, label %65
    i64 1543, label %68
    i64 55, label %68
  ]

50:                                               ; preds = %44
  %51 = load ptr, ptr %3, align 8, !tbaa !4
  %52 = getelementptr inbounds nuw %struct.AC3EncodeContext, ptr %51, i32 0, i32 30
  store i32 1, ptr %52, align 16, !tbaa !90
  br label %71

53:                                               ; preds = %44
  %54 = load ptr, ptr %3, align 8, !tbaa !4
  %55 = getelementptr inbounds nuw %struct.AC3EncodeContext, ptr %54, i32 0, i32 30
  store i32 2, ptr %55, align 16, !tbaa !90
  br label %71

56:                                               ; preds = %44
  %57 = load ptr, ptr %3, align 8, !tbaa !4
  %58 = getelementptr inbounds nuw %struct.AC3EncodeContext, ptr %57, i32 0, i32 30
  store i32 3, ptr %58, align 16, !tbaa !90
  br label %71

59:                                               ; preds = %44
  %60 = load ptr, ptr %3, align 8, !tbaa !4
  %61 = getelementptr inbounds nuw %struct.AC3EncodeContext, ptr %60, i32 0, i32 30
  store i32 4, ptr %61, align 16, !tbaa !90
  br label %71

62:                                               ; preds = %44
  %63 = load ptr, ptr %3, align 8, !tbaa !4
  %64 = getelementptr inbounds nuw %struct.AC3EncodeContext, ptr %63, i32 0, i32 30
  store i32 5, ptr %64, align 16, !tbaa !90
  br label %71

65:                                               ; preds = %44, %44
  %66 = load ptr, ptr %3, align 8, !tbaa !4
  %67 = getelementptr inbounds nuw %struct.AC3EncodeContext, ptr %66, i32 0, i32 30
  store i32 6, ptr %67, align 16, !tbaa !90
  br label %71

68:                                               ; preds = %44, %44
  %69 = load ptr, ptr %3, align 8, !tbaa !4
  %70 = getelementptr inbounds nuw %struct.AC3EncodeContext, ptr %69, i32 0, i32 30
  store i32 7, ptr %70, align 16, !tbaa !90
  br label %71

71:                                               ; preds = %44, %68, %65, %62, %59, %56, %53, %50
  %72 = load ptr, ptr %3, align 8, !tbaa !4
  %73 = getelementptr inbounds nuw %struct.AC3EncodeContext, ptr %72, i32 0, i32 30
  %74 = load i32, ptr %73, align 16, !tbaa !90
  %75 = and i32 %74, 1
  %76 = icmp ne i32 %75, 0
  br i1 %76, label %77, label %82

77:                                               ; preds = %71
  %78 = load ptr, ptr %3, align 8, !tbaa !4
  %79 = getelementptr inbounds nuw %struct.AC3EncodeContext, ptr %78, i32 0, i32 30
  %80 = load i32, ptr %79, align 16, !tbaa !90
  %81 = icmp ne i32 %80, 1
  br label %82

82:                                               ; preds = %77, %71
  %83 = phi i1 [ false, %71 ], [ %81, %77 ]
  %84 = zext i1 %83 to i32
  %85 = load ptr, ptr %3, align 8, !tbaa !4
  %86 = getelementptr inbounds nuw %struct.AC3EncodeContext, ptr %85, i32 0, i32 28
  store i32 %84, ptr %86, align 8, !tbaa !92
  %87 = load ptr, ptr %3, align 8, !tbaa !4
  %88 = getelementptr inbounds nuw %struct.AC3EncodeContext, ptr %87, i32 0, i32 30
  %89 = load i32, ptr %88, align 16, !tbaa !90
  %90 = and i32 %89, 4
  %91 = load ptr, ptr %3, align 8, !tbaa !4
  %92 = getelementptr inbounds nuw %struct.AC3EncodeContext, ptr %91, i32 0, i32 29
  store i32 %90, ptr %92, align 4, !tbaa !95
  %93 = load ptr, ptr %3, align 8, !tbaa !4
  %94 = getelementptr inbounds nuw %struct.AC3EncodeContext, ptr %93, i32 0, i32 30
  %95 = load i32, ptr %94, align 16, !tbaa !90
  %96 = sext i32 %95 to i64
  %97 = getelementptr inbounds [8 x [2 x [6 x i8]]], ptr @ac3_enc_channel_map, i64 0, i64 %96
  %98 = load ptr, ptr %3, align 8, !tbaa !4
  %99 = getelementptr inbounds nuw %struct.AC3EncodeContext, ptr %98, i32 0, i32 26
  %100 = load i32, ptr %99, align 16, !tbaa !160
  %101 = sext i32 %100 to i64
  %102 = getelementptr inbounds [2 x [6 x i8]], ptr %97, i64 0, i64 %101
  %103 = getelementptr inbounds [6 x i8], ptr %102, i64 0, i64 0
  %104 = load ptr, ptr %3, align 8, !tbaa !4
  %105 = getelementptr inbounds nuw %struct.AC3EncodeContext, ptr %104, i32 0, i32 31
  store ptr %103, ptr %105, align 8, !tbaa !287
  call void @llvm.lifetime.end.p0(i64 4, ptr %5) #12
  call void @llvm.lifetime.end.p0(i64 8, ptr %4) #12
  call void @llvm.lifetime.end.p0(i64 8, ptr %3) #12
  ret void
}