; Function Attrs: cold nounwind optsize uwtable
define internal fastcc void @set_channel_info(ptr noundef %0) unnamed_addr #4 {
  %2 = getelementptr inbounds nuw i8, ptr %0, i64 32
  %3 = load ptr, ptr %2, align 8, !tbaa !45
  %4 = getelementptr inbounds nuw i8, ptr %0, i64 352
  %5 = tail call i64 @av_channel_layout_subset(ptr noundef nonnull %4, i64 noundef -1) #14
  %6 = getelementptr inbounds nuw i8, ptr %0, i64 356
  %7 = load i32, ptr %6, align 4, !tbaa !201
  %8 = trunc i64 %5 to i32
  %9 = lshr i32 %8, 3
  %10 = and i32 %9, 1
  %11 = getelementptr inbounds nuw i8, ptr %3, i64 5008
  store i32 %10, ptr %11, align 16, !tbaa !90
  %12 = getelementptr inbounds nuw i8, ptr %3, i64 5004
  store i32 %7, ptr %12, align 4, !tbaa !81
  %13 = sub nsw i32 %7, %10
  %14 = getelementptr inbounds nuw i8, ptr %3, i64 5000
  store i32 %13, ptr %14, align 8, !tbaa !24
  %.not = icmp eq i32 %10, 0
  %15 = add nsw i32 %13, 1
  %spec.select = select i1 %.not, i32 -1, i32 %15
  %16 = getelementptr inbounds nuw i8, ptr %3, i64 5012
  store i32 %spec.select, ptr %16, align 4, !tbaa !91
  %17 = and i64 %5, -9
  switch i64 %17, label %._crit_edge [
    i64 4, label %18
    i64 3, label %20
    i64 7, label %22
    i64 259, label %24
    i64 263, label %26
    i64 51, label %28
    i64 1539, label %28
    i64 1543, label %30
    i64 55, label %30
  ]

._crit_edge:                                      ; preds = %1
  %.phi.trans.insert = getelementptr inbounds nuw i8, ptr %3, i64 5024
  %.pre = load i32, ptr %.phi.trans.insert, align 16, !tbaa !105
  br label %32

18:                                               ; preds = %1
  %19 = getelementptr inbounds nuw i8, ptr %3, i64 5024
  store i32 1, ptr %19, align 16, !tbaa !105
  br label %32

20:                                               ; preds = %1
  %21 = getelementptr inbounds nuw i8, ptr %3, i64 5024
  store i32 2, ptr %21, align 16, !tbaa !105
  br label %32

22:                                               ; preds = %1
  %23 = getelementptr inbounds nuw i8, ptr %3, i64 5024
  store i32 3, ptr %23, align 16, !tbaa !105
  br label %32

24:                                               ; preds = %1
  %25 = getelementptr inbounds nuw i8, ptr %3, i64 5024
  store i32 4, ptr %25, align 16, !tbaa !105
  br label %32

26:                                               ; preds = %1
  %27 = getelementptr inbounds nuw i8, ptr %3, i64 5024
  store i32 5, ptr %27, align 16, !tbaa !105
  br label %32

28:                                               ; preds = %1, %1
  %29 = getelementptr inbounds nuw i8, ptr %3, i64 5024
  store i32 6, ptr %29, align 16, !tbaa !105
  br label %32

30:                                               ; preds = %1, %1
  %31 = getelementptr inbounds nuw i8, ptr %3, i64 5024
  store i32 7, ptr %31, align 16, !tbaa !105
  br label %32

32:                                               ; preds = %._crit_edge, %30, %28, %26, %24, %22, %20, %18
  %33 = phi i32 [ %.pre, %._crit_edge ], [ 7, %30 ], [ 6, %28 ], [ 5, %26 ], [ 4, %24 ], [ 3, %22 ], [ 2, %20 ], [ 1, %18 ]
  %34 = and i32 %33, 1
  %.not28 = icmp ne i32 %34, 0
  %35 = icmp ne i32 %33, 1
  %narrow = and i1 %35, %.not28
  %36 = zext i1 %narrow to i32
  %37 = getelementptr inbounds nuw i8, ptr %3, i64 5016
  store i32 %36, ptr %37, align 8, !tbaa !106
  %38 = and i32 %33, 4
  %39 = getelementptr inbounds nuw i8, ptr %3, i64 5020
  store i32 %38, ptr %39, align 4, !tbaa !107
  %40 = sext i32 %33 to i64
  %41 = zext nneg i32 %10 to i64
  %42 = getelementptr inbounds [8 x [2 x [6 x i8]]], ptr @ac3_enc_channel_map, i64 0, i64 %40, i64 %41
  %43 = getelementptr inbounds nuw i8, ptr %3, i64 5032
  store ptr %42, ptr %43, align 8, !tbaa !260
  ret void
}